target datalayout = "e-m:e-p270:32:32-p271:32:32-p272:64:64-i64:64-i128:128-f80:128-n8:16:32:64-S128"
target triple = "x86_64-pc-linux-gnu"

%struct.H5O_token_t = type { [16 x i8] }
%struct.trav_info_t = type { i64, i64, ptr, i64, ptr, %struct.symlink_trav_t, ptr }
%struct.symlink_trav_t = type { i64, i64, ptr, i8 }
%struct.trav_path_t = type { ptr, i32, %struct.H5O_token_t, i64 }
%struct.symlink_trav_path_t = type { i32, ptr, ptr }

; Function Attrs: nounwind uwtable
define void @trav_info_free(ptr noundef %0) #0 {
  %2 = alloca ptr, align 8
  %3 = alloca i64, align 8
  store ptr %0, ptr %2, align 8, !tbaa !7
  call void @llvm.lifetime.start.p0(i64 8, ptr %3) #10
  %4 = load ptr, ptr %2, align 8, !tbaa !7
  %5 = icmp ne ptr %4, null
  br i1 %5, label %6, label %72

6:                                                ; preds = %1
  store i64 0, ptr %3, align 8, !tbaa !21
  br label %7

7:                                                ; preds = %42, %6
  %8 = load i64, ptr %3, align 8, !tbaa !21
  %9 = load ptr, ptr %2, align 8, !tbaa !7
  %10 = getelementptr inbounds nuw %struct.trav_info_t, ptr %9, i32 0, i32 5
  %11 = getelementptr inbounds nuw %struct.symlink_trav_t, ptr %10, i32 0, i32 1
  %12 = load i64, ptr %11, align 8, !tbaa !68
  %13 = icmp ult i64 %8, %12
  br i1 %13, label %14, label %45

14:                                               ; preds = %7
  %15 = load ptr, ptr %2, align 8, !tbaa !7
  %16 = getelementptr inbounds nuw %struct.trav_info_t, ptr %15, i32 0, i32 5
  %17 = getelementptr inbounds nuw %struct.symlink_trav_t, ptr %16, i32 0, i32 2
  %18 = load ptr, ptr %17, align 8, !tbaa !70
  %19 = load i64, ptr %3, align 8, !tbaa !21
  %20 = getelementptr inbounds nuw %struct.symlink_trav_path_t, ptr %18, i64 %19
  %21 = getelementptr inbounds nuw %struct.symlink_trav_path_t, ptr %20, i32 0, i32 1
  %22 = load ptr, ptr %21, align 8, !tbaa !72
  %23 = icmp ne ptr %22, null
  br i1 %23, label %24, label %33

24:                                               ; preds = %14
  %25 = load ptr, ptr %2, align 8, !tbaa !7
  %26 = getelementptr inbounds nuw %struct.trav_info_t, ptr %25, i32 0, i32 5
  %27 = getelementptr inbounds nuw %struct.symlink_trav_t, ptr %26, i32 0, i32 2
  %28 = load ptr, ptr %27, align 8, !tbaa !70
  %29 = load i64, ptr %3, align 8, !tbaa !21
  %30 = getelementptr inbounds nuw %struct.symlink_trav_path_t, ptr %28, i64 %29
  %31 = getelementptr inbounds nuw %struct.symlink_trav_path_t, ptr %30, i32 0, i32 1
  %32 = load ptr, ptr %31, align 8, !tbaa !72
  call void @free(ptr noundef %32) #10
  br label %33

33:                                               ; preds = %24, %14
  %34 = load ptr, ptr %2, align 8, !tbaa !7
  %35 = getelementptr inbounds nuw %struct.trav_info_t, ptr %34, i32 0, i32 5
  %36 = getelementptr inbounds nuw %struct.symlink_trav_t, ptr %35, i32 0, i32 2
  %37 = load ptr, ptr %36, align 8, !tbaa !70
  %38 = load i64, ptr %3, align 8, !tbaa !21
  %39 = getelementptr inbounds nuw %struct.symlink_trav_path_t, ptr %37, i64 %38
  %40 = getelementptr inbounds nuw %struct.symlink_trav_path_t, ptr %39, i32 0, i32 2
  %41 = load ptr, ptr %40, align 8, !tbaa !74
  call void @free(ptr noundef %41) #10
  br label %42

42:                                               ; preds = %33
  %43 = load i64, ptr %3, align 8, !tbaa !21
  %44 = add i64 %43, 1
  store i64 %44, ptr %3, align 8, !tbaa !21
  br label %7, !llvm.loop !75

45:                                               ; preds = %7
  %46 = load ptr, ptr %2, align 8, !tbaa !7
  %47 = getelementptr inbounds nuw %struct.trav_info_t, ptr %46, i32 0, i32 5
  %48 = getelementptr inbounds nuw %struct.symlink_trav_t, ptr %47, i32 0, i32 2
  %49 = load ptr, ptr %48, align 8, !tbaa !70
  call void @free(ptr noundef %49) #10
  store i64 0, ptr %3, align 8, !tbaa !21
  br label %50

50:                                               ; preds = %64, %45
  %51 = load i64, ptr %3, align 8, !tbaa !21
  %52 = load ptr, ptr %2, align 8, !tbaa !7
  %53 = getelementptr inbounds nuw %struct.trav_info_t, ptr %52, i32 0, i32 1
  %54 = load i64, ptr %53, align 8, !tbaa !12
  %55 = icmp ult i64 %51, %54
  br i1 %55, label %56, label %67

56:                                               ; preds = %50
  %57 = load ptr, ptr %2, align 8, !tbaa !7
  %58 = getelementptr inbounds nuw %struct.trav_info_t, ptr %57, i32 0, i32 4
  %59 = load ptr, ptr %58, align 8, !tbaa !20
  %60 = load i64, ptr %3, align 8, !tbaa !21
  %61 = getelementptr inbounds nuw %struct.trav_path_t, ptr %59, i64 %60
  %62 = getelementptr inbounds nuw %struct.trav_path_t, ptr %61, i32 0, i32 0
  %63 = load ptr, ptr %62, align 8, !tbaa !22
  call void @free(ptr noundef %63) #10
  br label %64

64:                                               ; preds = %56
  %65 = load i64, ptr %3, align 8, !tbaa !21
  %66 = add i64 %65, 1
  store i64 %66, ptr %3, align 8, !tbaa !21
  br label %50, !llvm.loop !76

67:                                               ; preds = %50
  %68 = load ptr, ptr %2, align 8, !tbaa !7
  %69 = getelementptr inbounds nuw %struct.trav_info_t, ptr %68, i32 0, i32 4
  %70 = load ptr, ptr %69, align 8, !tbaa !20
  call void @free(ptr noundef %70) #10
  %71 = load ptr, ptr %2, align 8, !tbaa !7
  call void @free(ptr noundef %71) #10
  br label %72

72:                                               ; preds = %67, %1
  call void @llvm.lifetime.end.p0(i64 8, ptr %3) #10
  ret void
}