; Function Attrs: nounwind uwtable
define void @trav_info_free(ptr noundef captures(address_is_null) %0) local_unnamed_addr #1 {
  %.not = icmp eq ptr %0, null
  br i1 %.not, label %31, label %.preheader

.preheader:                                       ; preds = %1
  %2 = getelementptr inbounds nuw i8, ptr %0, i64 48
  %3 = load i64, ptr %2, align 8, !tbaa !63
  %.not25 = icmp eq i64 %3, 0
  br i1 %.not25, label %._crit_edge, label %.lr.ph

.lr.ph:                                           ; preds = %.preheader
  %4 = getelementptr inbounds nuw i8, ptr %0, i64 56
  br label %5

5:                                                ; preds = %.lr.ph, %10
  %.020 = phi i64 [ 0, %.lr.ph ], [ %14, %10 ]
  %6 = load ptr, ptr %4, align 8, !tbaa !64
  %7 = getelementptr inbounds nuw %struct.symlink_trav_path_t, ptr %6, i64 %.020, i32 1
  %8 = load ptr, ptr %7, align 8, !tbaa !65
  %.not19 = icmp eq ptr %8, null
  br i1 %.not19, label %10, label %9

9:                                                ; preds = %5
  tail call void @free(ptr noundef nonnull %8) #18
  %.pre = load ptr, ptr %4, align 8, !tbaa !64
  br label %10

10:                                               ; preds = %9, %5
  %11 = phi ptr [ %.pre, %9 ], [ %6, %5 ]
  %12 = getelementptr inbounds nuw %struct.symlink_trav_path_t, ptr %11, i64 %.020, i32 2
  %13 = load ptr, ptr %12, align 8, !tbaa !67
  tail call void @free(ptr noundef %13) #18
  %14 = add nuw i64 %.020, 1
  %15 = load i64, ptr %2, align 8, !tbaa !63
  %16 = icmp ult i64 %14, %15
  br i1 %16, label %5, label %._crit_edge, !llvm.loop !68

._crit_edge:                                      ; preds = %10, %.preheader
  %17 = getelementptr inbounds nuw i8, ptr %0, i64 56
  %18 = load ptr, ptr %17, align 8, !tbaa !64
  tail call void @free(ptr noundef %18) #18
  %19 = getelementptr inbounds nuw i8, ptr %0, i64 8
  %20 = load i64, ptr %19, align 8, !tbaa !7
  %.not26 = icmp eq i64 %20, 0
  br i1 %.not26, label %._crit_edge24, label %.lr.ph23

.lr.ph23:                                         ; preds = %._crit_edge
  %21 = getelementptr inbounds nuw i8, ptr %0, i64 32
  br label %22

22:                                               ; preds = %.lr.ph23, %22
  %.121 = phi i64 [ 0, %.lr.ph23 ], [ %26, %22 ]
  %23 = load ptr, ptr %21, align 8, !tbaa !17
  %24 = getelementptr inbounds nuw %struct.trav_path_t, ptr %23, i64 %.121
  %25 = load ptr, ptr %24, align 8, !tbaa !18
  tail call void @free(ptr noundef %25) #18
  %26 = add nuw i64 %.121, 1
  %27 = load i64, ptr %19, align 8, !tbaa !7
  %28 = icmp ult i64 %26, %27
  br i1 %28, label %22, label %._crit_edge24, !llvm.loop !69

._crit_edge24:                                    ; preds = %22, %._crit_edge
  %29 = getelementptr inbounds nuw i8, ptr %0, i64 32
  %30 = load ptr, ptr %29, align 8, !tbaa !17
  tail call void @free(ptr noundef %30) #18
  tail call void @free(ptr noundef nonnull %0) #18
  br label %31

31:                                               ; preds = %._crit_edge24, %1
  ret void
}